; Function Attrs: nounwind uwtable
define internal void @InvalidateOprProofCacheCallBack(i64 %0, i32 %1, i32 %2) #0 {
  %4 = alloca %struct.HASH_SEQ_STATUS, align 8
  call void @llvm.lifetime.start.p0(i64 32, ptr nonnull %4) #7
  %5 = load ptr, ptr @OprProofCacheHash, align 8
  call void @hash_seq_init(ptr noundef nonnull %4, ptr noundef %5) #7
  %6 = call ptr @hash_seq_search(ptr noundef nonnull %4) #7
  %.not2 = icmp eq ptr %6, null
  br i1 %.not2, label %._crit_edge, label %.lr.ph

.lr.ph:                                           ; preds = %3, %.lr.ph
  %7 = phi ptr [ %10, %.lr.ph ], [ %6, %3 ]
  %8 = getelementptr inbounds nuw i8, ptr %7, i64 8
  store i8 0, ptr %8, align 4
  %9 = getelementptr inbounds nuw i8, ptr %7, i64 9
  store i8 0, ptr %9, align 1
  %10 = call ptr @hash_seq_search(ptr noundef nonnull %4) #7
  %.not = icmp eq ptr %10, null
  br i1 %.not, label %._crit_edge, label %.lr.ph, !llvm.loop !26

._crit_edge:                                      ; preds = %.lr.ph, %3
  call void @llvm.lifetime.end.p0(i64 32, ptr nonnull %4) #7
  ret void
}